; Function Attrs: mustprogress uwtable
define void @_ZNK18OpenImageIO_v2_6_014ParamValueList10get_stringENS_17basic_string_viewIcSt11char_traitsIcEEES4_bb(ptr noalias nocapture writeonly sret(%"class.OpenImageIO_v2_6_0::basic_string_view") align 8 %agg.result, ptr nocapture noundef nonnull readonly align 8 dereferenceable(24) %this, ptr nocapture noundef readonly %name, ptr nocapture noundef readonly %defaultval, i1 noundef zeroext %casesensitive, i1 noundef zeroext %convert) local_unnamed_addr #10 align 2 {
entry:
  %agg.tmp = alloca %"class.OpenImageIO_v2_6_0::basic_string_view", align 8
  %agg.tmp3 = alloca %"struct.OpenImageIO_v2_6_0::TypeDesc", align 4
  %ref.tmp8 = alloca %"class.OpenImageIO_v2_6_0::ustring", align 8
  %0 = load ptr, ptr %name, align 8
  store ptr %0, ptr %agg.tmp, align 8
  %m_len.i = getelementptr inbounds i8, ptr %agg.tmp, i64 8
  %m_len.i.i = getelementptr inbounds i8, ptr %name, i64 8
  %1 = load i64, ptr %m_len.i.i, align 8
  store i64 %1, ptr %m_len.i, align 8
  %conv.i = select i1 %convert, i8 0, i8 13
  store i8 %conv.i, ptr %agg.tmp3, align 4
  %aggregate.i = getelementptr inbounds i8, ptr %agg.tmp3, i64 1
  store i8 1, ptr %aggregate.i, align 1
  %vecsemantics.i = getelementptr inbounds i8, ptr %agg.tmp3, i64 2
  store i8 0, ptr %vecsemantics.i, align 2
  %reserved.i = getelementptr inbounds i8, ptr %agg.tmp3, i64 3
  store i8 0, ptr %reserved.i, align 1
  %arraylen4.i = getelementptr inbounds i8, ptr %agg.tmp3, i64 4
  store i32 0, ptr %arraylen4.i, align 4
  %call = call ptr @_ZNK18OpenImageIO_v2_6_014ParamValueList4findENS_17basic_string_viewIcSt11char_traitsIcEEENS_8TypeDescEb(ptr noundef nonnull align 8 dereferenceable(24) %this, ptr noundef nonnull %agg.tmp, ptr noundef nonnull %agg.tmp3, i1 noundef zeroext %casesensitive)
  %_M_finish.i = getelementptr inbounds i8, ptr %this, i64 8
  %2 = load ptr, ptr %_M_finish.i, align 8
  %cmp.i = icmp eq ptr %call, %2
  br i1 %cmp.i, label %cond.end.thread, label %cond.false

cond.end.thread:                                  ; preds = %entry
  %3 = load ptr, ptr %defaultval, align 8
  store ptr %3, ptr %agg.result, align 8
  %m_len.i1 = getelementptr inbounds i8, ptr %agg.result, i64 8
  %m_len.i.i2 = getelementptr inbounds i8, ptr %defaultval, i64 8
  %4 = load i64, ptr %m_len.i.i2, align 8
  store i64 %4, ptr %m_len.i1, align 8
  br label %cleanup.done

cond.false:                                       ; preds = %entry
  call void @_ZNK18OpenImageIO_v2_6_010ParamValue11get_ustringEi(ptr nonnull sret(%"class.OpenImageIO_v2_6_0::ustring") align 8 %ref.tmp8, ptr noundef nonnull align 8 dereferenceable(39) %call, i32 noundef 64)
  tail call void @llvm.experimental.noalias.scope.decl(metadata !243)
  %5 = load ptr, ptr %ref.tmp8, align 8, !noalias !243
  %tobool.not.i.i = icmp eq ptr %5, null
  br i1 %tobool.not.i.i, label %cleanup.action, label %if.end.i.i

if.end.i.i:                                       ; preds = %cond.false
  %length.i.i = getelementptr inbounds i8, ptr %5, i64 -24
  %6 = load i64, ptr %length.i.i, align 8, !noalias !243
  br label %cleanup.action

cleanup.action:                                   ; preds = %cond.false, %if.end.i.i
  %retval.0.i.i = phi i64 [ %6, %if.end.i.i ], [ 0, %cond.false ]
  store ptr %5, ptr %agg.result, align 8, !alias.scope !243
  %m_len.i.i3 = getelementptr inbounds i8, ptr %agg.result, i64 8
  store i64 %retval.0.i.i, ptr %m_len.i.i3, align 8, !alias.scope !243
  br label %cleanup.done

cleanup.done:                                     ; preds = %cond.end.thread, %cleanup.action
  ret void
}